target datalayout = "e-m:e-p270:32:32-p271:32:32-p272:64:64-i64:64-i128:128-f80:128-n8:16:32:64-S128"
target triple = "x86_64-pc-linux-gnu"

%struct.ProgressFrame = type { ptr, ptr }

; Function Attrs: nounwind uwtable
define void @ff_progress_frame_ref(ptr noundef %0, ptr noundef %1) #0 {
  %3 = alloca ptr, align 8
  %4 = alloca ptr, align 8
  store ptr %0, ptr %3, align 8, !tbaa !272
  store ptr %1, ptr %4, align 8, !tbaa !272
  %5 = load ptr, ptr %4, align 8, !tbaa !272
  %6 = getelementptr inbounds nuw %struct.ProgressFrame, ptr %5, i32 0, i32 0
  %7 = load ptr, ptr %6, align 8, !tbaa !282
  %8 = load ptr, ptr %3, align 8, !tbaa !272
  %9 = getelementptr inbounds nuw %struct.ProgressFrame, ptr %8, i32 0, i32 0
  store ptr %7, ptr %9, align 8, !tbaa !282
  %10 = load ptr, ptr %4, align 8, !tbaa !272
  %11 = getelementptr inbounds nuw %struct.ProgressFrame, ptr %10, i32 0, i32 1
  %12 = load ptr, ptr %11, align 8, !tbaa !276
  %13 = call ptr @av_refstruct_ref(ptr noundef %12)
  %14 = load ptr, ptr %3, align 8, !tbaa !272
  %15 = getelementptr inbounds nuw %struct.ProgressFrame, ptr %14, i32 0, i32 1
  store ptr %13, ptr %15, align 8, !tbaa !276
  ret void
}

; Function Attrs: nounwind uwtable
define internal void @check_progress_consistency(ptr noundef %0) #0 {
  %2 = alloca ptr, align 8
  store ptr %0, ptr %2, align 8, !tbaa !272
  ret void
}

; Function Attrs: nounwind uwtable
define void @ff_progress_frame_unref(ptr noundef %0) #0 {
  %2 = alloca ptr, align 8
  store ptr %0, ptr %2, align 8, !tbaa !272
  %3 = load ptr, ptr %2, align 8, !tbaa !272
  call void @check_progress_consistency(ptr noundef %3)
  %4 = load ptr, ptr %2, align 8, !tbaa !272
  %5 = getelementptr inbounds nuw %struct.ProgressFrame, ptr %4, i32 0, i32 0
  store ptr null, ptr %5, align 8, !tbaa !282
  %6 = load ptr, ptr %2, align 8, !tbaa !272
  %7 = getelementptr inbounds nuw %struct.ProgressFrame, ptr %6, i32 0, i32 1
  call void @av_refstruct_unref(ptr noundef %7)
  ret void
}

; Function Attrs: nounwind uwtable
define void @ff_progress_frame_replace(ptr noundef %0, ptr noundef %1) #0 {
  %3 = alloca ptr, align 8
  %4 = alloca ptr, align 8
  store ptr %0, ptr %3, align 8, !tbaa !272
  store ptr %1, ptr %4, align 8, !tbaa !272
  %5 = load ptr, ptr %3, align 8, !tbaa !272
  %6 = load ptr, ptr %4, align 8, !tbaa !272
  %7 = icmp eq ptr %5, %6
  br i1 %7, label %8, label %9

8:                                                ; preds = %2
  br label %19

9:                                                ; preds = %2
  %10 = load ptr, ptr %3, align 8, !tbaa !272
  call void @ff_progress_frame_unref(ptr noundef %10)
  %11 = load ptr, ptr %4, align 8, !tbaa !272
  call void @check_progress_consistency(ptr noundef %11)
  %12 = load ptr, ptr %4, align 8, !tbaa !272
  %13 = getelementptr inbounds nuw %struct.ProgressFrame, ptr %12, i32 0, i32 0
  %14 = load ptr, ptr %13, align 8, !tbaa !282
  %15 = icmp ne ptr %14, null
  br i1 %15, label %16, label %19

16:                                               ; preds = %9
  %17 = load ptr, ptr %3, align 8, !tbaa !272
  %18 = load ptr, ptr %4, align 8, !tbaa !272
  call void @ff_progress_frame_ref(ptr noundef %17, ptr noundef %18)
  br label %19

19:                                               ; preds = %8, %16, %9
  ret void
}