; Function Attrs: nounwind uwtable
define void @ff_progress_frame_replace(ptr noundef %0, ptr noundef readonly captures(address) %1) local_unnamed_addr #0 {
  %3 = icmp eq ptr %0, %1
  br i1 %3, label %11, label %4

4:                                                ; preds = %2
  store ptr null, ptr %0, align 8, !tbaa !255
  %5 = getelementptr inbounds nuw i8, ptr %0, i64 8
  tail call void @av_refstruct_unref(ptr noundef nonnull %5) #10
  %6 = load ptr, ptr %1, align 8, !tbaa !255
  %.not = icmp eq ptr %6, null
  br i1 %.not, label %11, label %7

7:                                                ; preds = %4
  store ptr %6, ptr %0, align 8, !tbaa !255
  %8 = getelementptr inbounds nuw i8, ptr %1, i64 8
  %9 = load ptr, ptr %8, align 8, !tbaa !249
  %10 = tail call ptr @av_refstruct_ref(ptr noundef %9) #10
  store ptr %10, ptr %5, align 8, !tbaa !249
  br label %11

11:                                               ; preds = %2, %7, %4
  ret void
}